target datalayout = "e-m:e-p270:32:32-p271:32:32-p272:64:64-i64:64-i128:128-f80:128-n8:16:32:64-S128"
target triple = "x86_64-pc-linux-gnu"

%"class.std::__cxx11::basic_string" = type { %"struct.std::__cxx11::basic_string<char>::_Alloc_hider", i64, %union.anon }
%"struct.std::__cxx11::basic_string<char>::_Alloc_hider" = type { ptr }
%union.anon = type { i64, [8 x i8] }
%"class.std::shared_ptr" = type { %"class.std::__shared_ptr" }
%"class.std::__shared_ptr" = type { ptr, %"class.std::__shared_count" }
%"class.std::__shared_count" = type { ptr }
%"class.std::vector.9" = type { %"struct.std::_Vector_base.10" }
%"struct.std::_Vector_base.10" = type { %"struct.std::_Vector_base<double, std::allocator<double>>::_Vector_impl" }
%"struct.std::_Vector_base<double, std::allocator<double>>::_Vector_impl" = type { %"struct.std::_Vector_base<double, std::allocator<double>>::_Vector_impl_data" }
%"struct.std::_Vector_base<double, std::allocator<double>>::_Vector_impl_data" = type { ptr, ptr, ptr }
%"class.open_spiel::garnet::GarnetState" = type { %"class.open_spiel::State.base", i32, i32, i32, i32, i32, double, double, i32, i8, i32, i32, i32, double, %"class.std::vector.9", %"class.std::vector.14", %"class.std::vector.9", %"class.std::vector.9", %"class.std::vector.9" }
%"class.open_spiel::State.base" = type <{ ptr, %"class.std::shared_ptr", i32, i32, %"class.std::vector", i32 }>
%"class.std::vector" = type { %"struct.std::_Vector_base" }
%"struct.std::_Vector_base" = type { %"struct.std::_Vector_base<open_spiel::State::PlayerAction, std::allocator<open_spiel::State::PlayerAction>>::_Vector_impl" }
%"struct.std::_Vector_base<open_spiel::State::PlayerAction, std::allocator<open_spiel::State::PlayerAction>>::_Vector_impl" = type { %"struct.std::_Vector_base<open_spiel::State::PlayerAction, std::allocator<open_spiel::State::PlayerAction>>::_Vector_impl_data" }
%"struct.std::_Vector_base<open_spiel::State::PlayerAction, std::allocator<open_spiel::State::PlayerAction>>::_Vector_impl_data" = type { ptr, ptr, ptr }
%"class.std::vector.14" = type { %"struct.std::_Vector_base.15" }
%"struct.std::_Vector_base.15" = type { %"struct.std::_Vector_base<int, std::allocator<int>>::_Vector_impl" }
%"struct.std::_Vector_base<int, std::allocator<int>>::_Vector_impl" = type { %"struct.std::_Vector_base<int, std::allocator<int>>::_Vector_impl_data" }
%"struct.std::_Vector_base<int, std::allocator<int>>::_Vector_impl_data" = type { ptr, ptr, ptr }

@.str.12 = private unnamed_addr constant [129 x i8] c"generated/home/dtcxzyw/WorkSpace/Projects/compilers/llvm-opt-benchmark/bench/openspiel/open_spiel/open_spiel/games/mfg/garnet.cc\00", align 1
@.str.13 = private unnamed_addr constant [2 x i8] c":\00", align 1
@.str.17 = private unnamed_addr constant [2 x i8] c" \00", align 1
@.str.19 = private unnamed_addr constant [17 x i8] c"\0Acurrent_player_\00", align 1
@.str.20 = private unnamed_addr constant [4 x i8] c" = \00", align 1
@.str.21 = private unnamed_addr constant [24 x i8] c", kMeanFieldPlayerId = \00", align 1
@.str.26 = private unnamed_addr constant [11 x i8] c", size_ = \00", align 1
@.str.31 = private unnamed_addr constant [38 x i8] c"current_player_ == kMeanFieldPlayerId\00", align 1
@.str.32 = private unnamed_addr constant [29 x i8] c"distribution.size() == size_\00", align 1
@.str.33 = private unnamed_addr constant [21 x i8] c"\0Adistribution.size()\00", align 1

; Function Attrs: mustprogress nounwind uwtable
define linkonce_odr noundef i64 @_ZNKSt6vectorIdSaIdEE4sizeEv(ptr noundef nonnull align 8 dereferenceable(24) %0) #5 comdat align 2 {
  %2 = alloca ptr, align 8
  store ptr %0, ptr %2, align 8
  %3 = load ptr, ptr %2, align 8
  %4 = getelementptr inbounds nuw %"struct.std::_Vector_base.10", ptr %3, i32 0, i32 0
  %5 = getelementptr inbounds nuw %"struct.std::_Vector_base<double, std::allocator<double>>::_Vector_impl_data", ptr %4, i32 0, i32 1
  %6 = load ptr, ptr %5, align 8
  %7 = getelementptr inbounds nuw %"struct.std::_Vector_base.10", ptr %3, i32 0, i32 0
  %8 = getelementptr inbounds nuw %"struct.std::_Vector_base<double, std::allocator<double>>::_Vector_impl_data", ptr %7, i32 0, i32 0
  %9 = load ptr, ptr %8, align 8
  %10 = ptrtoint ptr %6 to i64
  %11 = ptrtoint ptr %9 to i64
  %12 = sub i64 %10, %11
  %13 = sdiv exact i64 %12, 8
  ret i64 %13
}

; Function Attrs: mustprogress uwtable
define void @_ZN10open_spiel6garnet11GarnetState18UpdateDistributionERKSt6vectorIdSaIdEE(ptr noundef nonnull align 8 dereferenceable(248) %0, ptr noundef nonnull align 8 dereferenceable(24) %1) unnamed_addr #4 align 2 personality ptr @__gxx_personality_v0 {
  %3 = alloca ptr, align 8
  %4 = alloca ptr, align 8
  %5 = alloca i32, align 4
  %6 = alloca i32, align 4
  %7 = alloca %"class.std::__cxx11::basic_string", align 8
  %8 = alloca i32, align 4
  %9 = alloca ptr, align 8
  %10 = alloca i32, align 4
  %11 = alloca i64, align 8
  %12 = alloca i32, align 4
  %13 = alloca %"class.std::__cxx11::basic_string", align 8
  %14 = alloca i32, align 4
  store ptr %0, ptr %3, align 8
  store ptr %1, ptr %4, align 8
  %15 = load ptr, ptr %3, align 8
  br label %16

16:                                               ; preds = %2
  %17 = getelementptr inbounds nuw %"class.open_spiel::garnet::GarnetState", ptr %15, i32 0, i32 8
  %18 = load i32, ptr %17, align 8
  store i32 %18, ptr %5, align 4
  store i32 -5, ptr %6, align 4
  %19 = load i32, ptr %5, align 4
  %20 = load i32, ptr %6, align 4
  %21 = icmp eq i32 %19, %20
  br i1 %21, label %28, label %22

22:                                               ; preds = %16
  store i32 266, ptr %8, align 4
  call void @_ZN10open_spiel8internal11SpielStrCatIJRA129_KcRA2_S2_iS6_RA38_S2_RA17_S2_RA4_S2_RiRA24_S2_RNS_8PlayerIdEEEENSt7__cxx1112basic_stringIcSt11char_traitsIcESaIcEEEDpOT_(ptr dead_on_unwind writable sret(%"class.std::__cxx11::basic_string") align 8 %7, ptr noundef nonnull align 1 dereferenceable(129) @.str.12, ptr noundef nonnull align 1 dereferenceable(2) @.str.13, ptr noundef nonnull align 4 dereferenceable(4) %8, ptr noundef nonnull align 1 dereferenceable(2) @.str.17, ptr noundef nonnull align 1 dereferenceable(38) @.str.31, ptr noundef nonnull align 1 dereferenceable(17) @.str.19, ptr noundef nonnull align 1 dereferenceable(4) @.str.20, ptr noundef nonnull align 4 dereferenceable(4) %5, ptr noundef nonnull align 1 dereferenceable(24) @.str.21, ptr noundef nonnull align 4 dereferenceable(4) %6)
  invoke void @_ZN10open_spiel15SpielFatalErrorERKNSt7__cxx1112basic_stringIcSt11char_traitsIcESaIcEEE(ptr noundef nonnull align 8 dereferenceable(32) %7) #17
          to label %23 unwind label %24

23:                                               ; preds = %22
  unreachable

24:                                               ; preds = %22
  %25 = landingpad { ptr, i32 }
          cleanup
  %26 = extractvalue { ptr, i32 } %25, 0
  store ptr %26, ptr %9, align 8
  %27 = extractvalue { ptr, i32 } %25, 1
  store i32 %27, ptr %10, align 4
  call void @_ZNSt7__cxx1112basic_stringIcSt11char_traitsIcESaIcEED1Ev(ptr noundef nonnull align 8 dereferenceable(32) %7) #3
  br label %51

28:                                               ; preds = %16
  br label %29

29:                                               ; preds = %28
  br label %30

30:                                               ; preds = %29
  %31 = load ptr, ptr %4, align 8
  %32 = call noundef i64 @_ZNKSt6vectorIdSaIdEE4sizeEv(ptr noundef nonnull align 8 dereferenceable(24) %31) #3
  store i64 %32, ptr %11, align 8
  %33 = getelementptr inbounds nuw %"class.open_spiel::garnet::GarnetState", ptr %15, i32 0, i32 1
  %34 = load i32, ptr %33, align 4
  store i32 %34, ptr %12, align 4
  %35 = load i64, ptr %11, align 8
  %36 = load i32, ptr %12, align 4
  %37 = sext i32 %36 to i64
  %38 = icmp eq i64 %35, %37
  br i1 %38, label %45, label %39

39:                                               ; preds = %30
  store i32 267, ptr %14, align 4
  call void @_ZN10open_spiel8internal11SpielStrCatIJRA129_KcRA2_S2_iS6_RA29_S2_RA21_S2_RA4_S2_RmRA11_S2_RiEEENSt7__cxx1112basic_stringIcSt11char_traitsIcESaIcEEEDpOT_(ptr dead_on_unwind writable sret(%"class.std::__cxx11::basic_string") align 8 %13, ptr noundef nonnull align 1 dereferenceable(129) @.str.12, ptr noundef nonnull align 1 dereferenceable(2) @.str.13, ptr noundef nonnull align 4 dereferenceable(4) %14, ptr noundef nonnull align 1 dereferenceable(2) @.str.17, ptr noundef nonnull align 1 dereferenceable(29) @.str.32, ptr noundef nonnull align 1 dereferenceable(21) @.str.33, ptr noundef nonnull align 1 dereferenceable(4) @.str.20, ptr noundef nonnull align 8 dereferenceable(8) %11, ptr noundef nonnull align 1 dereferenceable(11) @.str.26, ptr noundef nonnull align 4 dereferenceable(4) %12)
  invoke void @_ZN10open_spiel15SpielFatalErrorERKNSt7__cxx1112basic_stringIcSt11char_traitsIcESaIcEEE(ptr noundef nonnull align 8 dereferenceable(32) %13) #17
          to label %40 unwind label %41

40:                                               ; preds = %39
  unreachable

41:                                               ; preds = %39
  %42 = landingpad { ptr, i32 }
          cleanup
  %43 = extractvalue { ptr, i32 } %42, 0
  store ptr %43, ptr %9, align 8
  %44 = extractvalue { ptr, i32 } %42, 1
  store i32 %44, ptr %10, align 4
  call void @_ZNSt7__cxx1112basic_stringIcSt11char_traitsIcESaIcEED1Ev(ptr noundef nonnull align 8 dereferenceable(32) %13) #3
  br label %51

45:                                               ; preds = %30
  br label %46

46:                                               ; preds = %45
  %47 = load ptr, ptr %4, align 8
  %48 = getelementptr inbounds nuw %"class.open_spiel::garnet::GarnetState", ptr %15, i32 0, i32 14
  %49 = call noundef nonnull align 8 dereferenceable(24) ptr @_ZNSt6vectorIdSaIdEEaSERKS1_(ptr noundef nonnull align 8 dereferenceable(24) %48, ptr noundef nonnull align 8 dereferenceable(24) %47)
  %50 = getelementptr inbounds nuw %"class.open_spiel::garnet::GarnetState", ptr %15, i32 0, i32 8
  store i32 0, ptr %50, align 8
  ret void

51:                                               ; preds = %41, %24
  %52 = load ptr, ptr %9, align 8
  %53 = load i32, ptr %10, align 4
  %54 = insertvalue { ptr, i32 } poison, ptr %52, 0
  %55 = insertvalue { ptr, i32 } %54, i32 %53, 1
  resume { ptr, i32 } %55
}