; Function Attrs: mustprogress uwtable
define void @_ZN10open_spiel6garnet11GarnetState18UpdateDistributionERKSt6vectorIdSaIdEE(ptr noundef nonnull align 8 dereferenceable(248) %0, ptr noundef nonnull align 8 dereferenceable(24) %1) unnamed_addr #3 align 2 personality ptr @__gxx_personality_v0 {
  %3 = alloca i32, align 4
  %4 = alloca i32, align 4
  %5 = alloca %"class.std::__cxx11::basic_string", align 8
  %6 = alloca i32, align 4
  %7 = alloca i64, align 8
  %8 = alloca i32, align 4
  %9 = alloca %"class.std::__cxx11::basic_string", align 8
  %10 = alloca i32, align 4
  %11 = getelementptr inbounds nuw i8, ptr %0, i64 96
  %12 = load i32, ptr %11, align 8
  store i32 %12, ptr %3, align 4
  store i32 -5, ptr %4, align 4
  %13 = icmp eq i32 %12, -5
  br i1 %13, label %18, label %14

14:                                               ; preds = %2
  store i32 266, ptr %6, align 4
  call void @_ZN10open_spiel8internal11SpielStrCatIJRA129_KcRA2_S2_iS6_RA38_S2_RA17_S2_RA4_S2_RiRA24_S2_RNS_8PlayerIdEEEENSt7__cxx1112basic_stringIcSt11char_traitsIcESaIcEEEDpOT_(ptr dead_on_unwind nonnull writable sret(%"class.std::__cxx11::basic_string") align 8 %5, ptr noundef nonnull align 1 dereferenceable(129) @.str.12, ptr noundef nonnull align 1 dereferenceable(2) @.str.13, ptr noundef nonnull align 4 dereferenceable(4) %6, ptr noundef nonnull align 1 dereferenceable(2) @.str.17, ptr noundef nonnull align 1 dereferenceable(38) @.str.31, ptr noundef nonnull align 1 dereferenceable(17) @.str.19, ptr noundef nonnull align 1 dereferenceable(4) @.str.20, ptr noundef nonnull align 4 dereferenceable(4) %3, ptr noundef nonnull align 1 dereferenceable(24) @.str.21, ptr noundef nonnull align 4 dereferenceable(4) %4)
  invoke void @_ZN10open_spiel15SpielFatalErrorERKNSt7__cxx1112basic_stringIcSt11char_traitsIcESaIcEEE(ptr noundef nonnull align 8 dereferenceable(32) %5) #25
          to label %15 unwind label %16

15:                                               ; preds = %14
  unreachable

16:                                               ; preds = %14
  %17 = landingpad { ptr, i32 }
          cleanup
  br label %37

18:                                               ; preds = %2
  %19 = getelementptr inbounds nuw i8, ptr %1, i64 8
  %20 = load ptr, ptr %19, align 8
  %21 = load ptr, ptr %1, align 8
  %22 = ptrtoint ptr %20 to i64
  %23 = ptrtoint ptr %21 to i64
  %24 = sub i64 %22, %23
  %25 = ashr exact i64 %24, 3
  store i64 %25, ptr %7, align 8
  %26 = getelementptr inbounds nuw i8, ptr %0, i64 60
  %27 = load i32, ptr %26, align 4
  store i32 %27, ptr %8, align 4
  %28 = sext i32 %27 to i64
  %29 = icmp eq i64 %25, %28
  br i1 %29, label %34, label %30

30:                                               ; preds = %18
  store i32 267, ptr %10, align 4
  call void @_ZN10open_spiel8internal11SpielStrCatIJRA129_KcRA2_S2_iS6_RA29_S2_RA21_S2_RA4_S2_RmRA11_S2_RiEEENSt7__cxx1112basic_stringIcSt11char_traitsIcESaIcEEEDpOT_(ptr dead_on_unwind nonnull writable sret(%"class.std::__cxx11::basic_string") align 8 %9, ptr noundef nonnull align 1 dereferenceable(129) @.str.12, ptr noundef nonnull align 1 dereferenceable(2) @.str.13, ptr noundef nonnull align 4 dereferenceable(4) %10, ptr noundef nonnull align 1 dereferenceable(2) @.str.17, ptr noundef nonnull align 1 dereferenceable(29) @.str.32, ptr noundef nonnull align 1 dereferenceable(21) @.str.33, ptr noundef nonnull align 1 dereferenceable(4) @.str.20, ptr noundef nonnull align 8 dereferenceable(8) %7, ptr noundef nonnull align 1 dereferenceable(11) @.str.26, ptr noundef nonnull align 4 dereferenceable(4) %8)
  invoke void @_ZN10open_spiel15SpielFatalErrorERKNSt7__cxx1112basic_stringIcSt11char_traitsIcESaIcEEE(ptr noundef nonnull align 8 dereferenceable(32) %9) #25
          to label %31 unwind label %32

31:                                               ; preds = %30
  unreachable

32:                                               ; preds = %30
  %33 = landingpad { ptr, i32 }
          cleanup
  br label %37

34:                                               ; preds = %18
  %35 = getelementptr inbounds nuw i8, ptr %0, i64 128
  %36 = tail call noundef nonnull align 8 dereferenceable(24) ptr @_ZNSt6vectorIdSaIdEEaSERKS1_(ptr noundef nonnull align 8 dereferenceable(24) %35, ptr noundef nonnull align 8 dereferenceable(24) %1)
  store i32 0, ptr %11, align 8
  ret void

37:                                               ; preds = %32, %16
  %.sink = phi ptr [ %9, %32 ], [ %5, %16 ]
  %.pn = phi { ptr, i32 } [ %33, %32 ], [ %17, %16 ]
  call void @_ZNSt7__cxx1112basic_stringIcSt11char_traitsIcESaIcEED1Ev(ptr noundef nonnull align 8 dereferenceable(32) %.sink) #26
  resume { ptr, i32 } %.pn
}